; Function Attrs: mustprogress uwtable
define noundef zeroext i1 @_ZNK6google8protobuf11MessageLite25SerializePartialToOstreamEPSo(ptr noundef nonnull align 8 dereferenceable(16) %this, ptr noundef %output) local_unnamed_addr #3 align 2 personality ptr @__gxx_personality_v0 {
entry:
  %zero_copy_output = alloca %"class.google::protobuf::io::OstreamOutputStream", align 8
  call void @_ZN6google8protobuf2io19OstreamOutputStreamC1EPSoi(ptr noundef nonnull align 8 dereferenceable(72) %zero_copy_output, ptr noundef %output, i32 noundef -1)
  %call = invoke noundef zeroext i1 @_ZNK6google8protobuf11MessageLite32SerializePartialToZeroCopyStreamEPNS0_2io20ZeroCopyOutputStreamE(ptr noundef nonnull align 8 dereferenceable(16) %this, ptr noundef nonnull %zero_copy_output)
          to label %invoke.cont unwind label %lpad

invoke.cont:                                      ; preds = %entry
  call void @_ZN6google8protobuf2io19OstreamOutputStreamD1Ev(ptr noundef nonnull align 8 dereferenceable(72) %zero_copy_output) #20
  ret i1 %call

lpad:                                             ; preds = %entry
  %0 = landingpad { ptr, i32 }
          cleanup
  call void @_ZN6google8protobuf2io19OstreamOutputStreamD1Ev(ptr noundef nonnull align 8 dereferenceable(72) %zero_copy_output) #20
  resume { ptr, i32 } %0
}